target datalayout = "e-m:e-p270:32:32-p271:32:32-p272:64:64-i64:64-i128:128-f80:128-n8:16:32:64-S128"
target triple = "x86_64-pc-linux-gnu"

%class.NativeCallStack = type { [4 x ptr] }
%class.MallocSiteHashtableEntry = type { %class.MallocSite, i32, ptr }
%class.MallocSite = type { %class.AllocationSite.base, %class.MemoryCounter }
%class.AllocationSite.base = type <{ %class.NativeCallStack, i8 }>
%class.MemoryCounter = type { i64, i64, i64, i64 }
%class.AllocationSite = type <{ %class.NativeCallStack, i8, [7 x i8] }>

@_ZN15MallocSiteTable6_tableE = hidden global ptr null, align 8
@_ZN15MallocSiteTable28_hash_entry_allocation_stackE = hidden global ptr null, align 8
@_ZN15MallocSiteTable27_hash_entry_allocation_siteE = hidden global ptr null, align 8
@_ZZN15MallocSiteTable10initializeEvE5stack = internal global %class.NativeCallStack zeroinitializer, align 8
@_ZGVZN15MallocSiteTable10initializeEvE5stack = internal global i64 0, align 8
@_ZZN15MallocSiteTable10initializeEvE5entry = internal global %class.MallocSiteHashtableEntry zeroinitializer, align 8
@_ZGVZN15MallocSiteTable10initializeEvE5entry = internal global i64 0, align 8

; Function Attrs: mustprogress nounwind uwtable
define linkonce_odr hidden void @_ZN13MemoryCounterC2Ev(ptr noundef nonnull align 8 dereferenceable(32) %0) unnamed_addr #1 comdat align 2 {
  %2 = alloca ptr, align 8
  store ptr %0, ptr %2, align 8
  %3 = load ptr, ptr %2, align 8
  %4 = getelementptr inbounds %class.MemoryCounter, ptr %3, i32 0, i32 0
  store volatile i64 0, ptr %4, align 8
  %5 = getelementptr inbounds %class.MemoryCounter, ptr %3, i32 0, i32 1
  store volatile i64 0, ptr %5, align 8
  %6 = getelementptr inbounds %class.MemoryCounter, ptr %3, i32 0, i32 2
  store volatile i64 0, ptr %6, align 8
  %7 = getelementptr inbounds %class.MemoryCounter, ptr %3, i32 0, i32 3
  store volatile i64 0, ptr %7, align 8
  ret void
}

; Function Attrs: mustprogress nounwind uwtable
define linkonce_odr hidden void @_ZN14AllocationSiteC2ERK15NativeCallStack8MEMFLAGS(ptr noundef nonnull align 8 dereferenceable(33) %0, ptr noundef nonnull align 8 dereferenceable(32) %1, i8 noundef zeroext %2) unnamed_addr #1 comdat align 2 {
  %4 = alloca ptr, align 8
  %5 = alloca ptr, align 8
  %6 = alloca i8, align 1
  store ptr %0, ptr %4, align 8
  store ptr %1, ptr %5, align 8
  store i8 %2, ptr %6, align 1
  %7 = load ptr, ptr %4, align 8
  %8 = getelementptr inbounds %class.AllocationSite, ptr %7, i32 0, i32 0
  %9 = load ptr, ptr %5, align 8
  call void @llvm.memcpy.p0.p0.i64(ptr align 8 %8, ptr align 8 %9, i64 32, i1 false)
  %10 = getelementptr inbounds %class.AllocationSite, ptr %7, i32 0, i32 1
  %11 = load i8, ptr %6, align 1
  store i8 %11, ptr %10, align 8
  ret void
}

; Function Attrs: mustprogress nounwind uwtable
define linkonce_odr hidden noundef i32 @_ZNK15NativeCallStack14calculate_hashEv(ptr noundef nonnull align 8 dereferenceable(32) %0) #1 comdat align 2 {
  %2 = alloca ptr, align 8
  %3 = alloca i64, align 8
  %4 = alloca i32, align 4
  store ptr %0, ptr %2, align 8
  %5 = load ptr, ptr %2, align 8
  store i64 0, ptr %3, align 8
  store i32 0, ptr %4, align 4
  br label %6

6:                                                ; preds = %18, %1
  %7 = load i32, ptr %4, align 4
  %8 = icmp slt i32 %7, 4
  br i1 %8, label %9, label %21

9:                                                ; preds = %6
  %10 = getelementptr inbounds %class.NativeCallStack, ptr %5, i32 0, i32 0
  %11 = load i32, ptr %4, align 4
  %12 = sext i32 %11 to i64
  %13 = getelementptr inbounds [4 x ptr], ptr %10, i64 0, i64 %12
  %14 = load ptr, ptr %13, align 8
  %15 = ptrtoint ptr %14 to i64
  %16 = load i64, ptr %3, align 8
  %17 = add i64 %16, %15
  store i64 %17, ptr %3, align 8
  br label %18

18:                                               ; preds = %9
  %19 = load i32, ptr %4, align 4
  %20 = add nsw i32 %19, 1
  store i32 %20, ptr %4, align 4
  br label %6, !llvm.loop !11

21:                                               ; preds = %6
  %22 = load i64, ptr %3, align 8
  %23 = trunc i64 %22 to i32
  ret i32 %23
}

; Function Attrs: mustprogress nounwind uwtable
define linkonce_odr hidden void @_ZN10MallocSiteC2ERK15NativeCallStack8MEMFLAGS(ptr noundef nonnull align 8 dereferenceable(72) %0, ptr noundef nonnull align 8 dereferenceable(32) %1, i8 noundef zeroext %2) unnamed_addr #1 comdat align 2 {
  %4 = alloca ptr, align 8
  %5 = alloca ptr, align 8
  %6 = alloca i8, align 1
  store ptr %0, ptr %4, align 8
  store ptr %1, ptr %5, align 8
  store i8 %2, ptr %6, align 1
  %7 = load ptr, ptr %4, align 8
  %8 = load ptr, ptr %5, align 8
  %9 = load i8, ptr %6, align 1
  call void @_ZN14AllocationSiteC2ERK15NativeCallStack8MEMFLAGS(ptr noundef nonnull align 8 dereferenceable(33) %7, ptr noundef nonnull align 8 dereferenceable(32) %8, i8 noundef zeroext %9)
  %10 = getelementptr inbounds %class.MallocSite, ptr %7, i32 0, i32 1
  call void @_ZN13MemoryCounterC2Ev(ptr noundef nonnull align 8 dereferenceable(32) %10)
  ret void
}

; Function Attrs: mustprogress nounwind uwtable
define linkonce_odr hidden noundef i32 @_ZN15MallocSiteTable13hash_to_indexEj(i32 noundef %0) #1 comdat align 2 {
  %2 = alloca i32, align 4
  store i32 %0, ptr %2, align 4
  %3 = load i32, ptr %2, align 4
  %4 = urem i32 %3, 4099
  ret i32 %4
}

; Function Attrs: mustprogress nounwind uwtable
define linkonce_odr hidden noundef i32 @_ZNK24MallocSiteHashtableEntry4hashEv(ptr noundef nonnull align 8 dereferenceable(88) %0) #1 comdat align 2 {
  %2 = alloca ptr, align 8
  store ptr %0, ptr %2, align 8
  %3 = load ptr, ptr %2, align 8
  %4 = getelementptr inbounds %class.MallocSiteHashtableEntry, ptr %3, i32 0, i32 1
  %5 = load i32, ptr %4, align 8
  ret i32 %5
}

; Function Attrs: mustprogress nounwind uwtable
define linkonce_odr hidden void @_ZN24MallocSiteHashtableEntryC2E15NativeCallStack8MEMFLAGS(ptr noundef nonnull align 8 dereferenceable(88) %0, ptr noundef byval(%class.NativeCallStack) align 8 %1, i8 noundef zeroext %2) unnamed_addr #1 comdat align 2 {
  %4 = alloca ptr, align 8
  %5 = alloca i8, align 1
  store ptr %0, ptr %4, align 8
  store i8 %2, ptr %5, align 1
  %6 = load ptr, ptr %4, align 8
  %7 = getelementptr inbounds %class.MallocSiteHashtableEntry, ptr %6, i32 0, i32 0
  %8 = load i8, ptr %5, align 1
  call void @_ZN10MallocSiteC2ERK15NativeCallStack8MEMFLAGS(ptr noundef nonnull align 8 dereferenceable(72) %7, ptr noundef nonnull align 8 dereferenceable(32) %1, i8 noundef zeroext %8)
  %9 = getelementptr inbounds %class.MallocSiteHashtableEntry, ptr %6, i32 0, i32 1
  %10 = call noundef i32 @_ZNK15NativeCallStack14calculate_hashEv(ptr noundef nonnull align 8 dereferenceable(32) %1)
  store i32 %10, ptr %9, align 8
  %11 = getelementptr inbounds %class.MallocSiteHashtableEntry, ptr %6, i32 0, i32 2
  store volatile ptr null, ptr %11, align 8
  ret void
}

; Function Attrs: mustprogress nounwind uwtable
define linkonce_odr hidden noundef i32 @_Z4MIN2IiET_S0_S0_(i32 noundef %0, i32 noundef %1) #1 comdat {
  %3 = alloca i32, align 4
  %4 = alloca i32, align 4
  store i32 %0, ptr %3, align 4
  store i32 %1, ptr %4, align 4
  %5 = load i32, ptr %3, align 4
  %6 = load i32, ptr %4, align 4
  %7 = icmp slt i32 %5, %6
  br i1 %7, label %8, label %10

8:                                                ; preds = %2
  %9 = load i32, ptr %3, align 4
  br label %12

10:                                               ; preds = %2
  %11 = load i32, ptr %4, align 4
  br label %12

12:                                               ; preds = %10, %8
  %13 = phi i32 [ %9, %8 ], [ %11, %10 ]
  ret i32 %13
}

; Function Attrs: mustprogress nounwind uwtable
define hidden noundef zeroext i1 @_ZN15MallocSiteTable10initializeEv() #1 align 2 {
  %1 = alloca i1, align 1
  %2 = alloca [3 x ptr], align 16
  %3 = alloca ptr, align 8
  %4 = alloca ptr, align 8
  %5 = alloca ptr, align 8
  %6 = alloca %class.NativeCallStack, align 8
  %7 = alloca i32, align 4
  %8 = call noalias ptr @calloc(i64 noundef 4099, i64 noundef 8) #8
  store ptr %8, ptr @_ZN15MallocSiteTable6_tableE, align 8
  %9 = load ptr, ptr @_ZN15MallocSiteTable6_tableE, align 8
  %10 = icmp eq ptr %9, null
  br i1 %10, label %11, label %12

11:                                               ; preds = %0
  store i1 false, ptr %1, align 1
  br label %41

12:                                               ; preds = %0
  store ptr @_ZN15MallocSiteTable13allocation_atERK15NativeCallStackmPj8MEMFLAGS, ptr %3, align 8
  %13 = load ptr, ptr %3, align 8
  %14 = getelementptr inbounds [3 x ptr], ptr %2, i64 0, i64 2
  store ptr %13, ptr %14, align 16
  store ptr @_ZN15MallocSiteTable13lookup_or_addERK15NativeCallStackPj8MEMFLAGS, ptr %4, align 8
  %15 = load ptr, ptr %4, align 8
  %16 = getelementptr inbounds [3 x ptr], ptr %2, i64 0, i64 1
  store ptr %15, ptr %16, align 8
  store ptr @_ZN15MallocSiteTable9new_entryERK15NativeCallStack8MEMFLAGS, ptr %5, align 8
  %17 = load ptr, ptr %5, align 8
  %18 = getelementptr inbounds [3 x ptr], ptr %2, i64 0, i64 0
  store ptr %17, ptr %18, align 16
  %19 = load atomic i8, ptr @_ZGVZN15MallocSiteTable10initializeEvE5stack acquire, align 8
  %20 = icmp eq i8 %19, 0
  br i1 %20, label %21, label %27, !prof !6

21:                                               ; preds = %12
  %22 = call i32 @__cxa_guard_acquire(ptr @_ZGVZN15MallocSiteTable10initializeEvE5stack) #3
  %23 = icmp ne i32 %22, 0
  br i1 %23, label %24, label %27

24:                                               ; preds = %21
  %25 = getelementptr inbounds [3 x ptr], ptr %2, i64 0, i64 0
  %26 = call noundef i32 @_Z4MIN2IiET_S0_S0_(i32 noundef 3, i32 noundef 4)
  call void @_ZN15NativeCallStackC1EPPhi(ptr noundef nonnull align 8 dereferenceable(32) @_ZZN15MallocSiteTable10initializeEvE5stack, ptr noundef %25, i32 noundef %26)
  call void @__cxa_guard_release(ptr @_ZGVZN15MallocSiteTable10initializeEvE5stack) #3
  br label %27

27:                                               ; preds = %24, %21, %12
  %28 = load atomic i8, ptr @_ZGVZN15MallocSiteTable10initializeEvE5entry acquire, align 8
  %29 = icmp eq i8 %28, 0
  br i1 %29, label %30, label %34, !prof !6

30:                                               ; preds = %27
  %31 = call i32 @__cxa_guard_acquire(ptr @_ZGVZN15MallocSiteTable10initializeEvE5entry) #3
  %32 = icmp ne i32 %31, 0
  br i1 %32, label %33, label %34

33:                                               ; preds = %30
  call void @llvm.memcpy.p0.p0.i64(ptr align 8 %6, ptr align 8 @_ZZN15MallocSiteTable10initializeEvE5stack, i64 32, i1 false)
  call void @_ZN24MallocSiteHashtableEntryC2E15NativeCallStack8MEMFLAGS(ptr noundef nonnull align 8 dereferenceable(88) @_ZZN15MallocSiteTable10initializeEvE5entry, ptr noundef byval(%class.NativeCallStack) align 8 %6, i8 noundef zeroext 12)
  call void @__cxa_guard_release(ptr @_ZGVZN15MallocSiteTable10initializeEvE5entry) #3
  br label %34

34:                                               ; preds = %33, %30, %27
  store ptr @_ZZN15MallocSiteTable10initializeEvE5stack, ptr @_ZN15MallocSiteTable28_hash_entry_allocation_stackE, align 8
  store ptr @_ZZN15MallocSiteTable10initializeEvE5entry, ptr @_ZN15MallocSiteTable27_hash_entry_allocation_siteE, align 8
  %35 = call noundef i32 @_ZNK24MallocSiteHashtableEntry4hashEv(ptr noundef nonnull align 8 dereferenceable(88) @_ZZN15MallocSiteTable10initializeEvE5entry)
  %36 = call noundef i32 @_ZN15MallocSiteTable13hash_to_indexEj(i32 noundef %35)
  store i32 %36, ptr %7, align 4
  %37 = load ptr, ptr @_ZN15MallocSiteTable6_tableE, align 8
  %38 = load i32, ptr %7, align 4
  %39 = sext i32 %38 to i64
  %40 = getelementptr inbounds ptr, ptr %37, i64 %39
  store ptr @_ZZN15MallocSiteTable10initializeEvE5entry, ptr %40, align 8
  store i1 true, ptr %1, align 1
  br label %41

41:                                               ; preds = %34, %11
  %42 = load i1, ptr %1, align 1
  ret i1 %42
}