; Function Attrs: mustprogress nounwind uwtable
define hidden noundef zeroext i1 @_ZN15MallocSiteTable10initializeEv() local_unnamed_addr #0 align 2 {
  %1 = alloca %class.NativeCallStack, align 8
  %2 = alloca [3 x ptr], align 16
  %3 = tail call noalias dereferenceable_or_null(32792) ptr @calloc(i64 noundef 4099, i64 noundef 8) #13
  store ptr %3, ptr @_ZN15MallocSiteTable6_tableE, align 8
  %4 = icmp ne ptr %3, null
  br i1 %4, label %5, label %31

5:                                                ; preds = %0
  %6 = getelementptr inbounds i8, ptr %2, i64 16
  store ptr @_ZN15MallocSiteTable13allocation_atERK15NativeCallStackmPj8MEMFLAGS, ptr %6, align 16
  %7 = getelementptr inbounds i8, ptr %2, i64 8
  store ptr @_ZN15MallocSiteTable13lookup_or_addERK15NativeCallStackPj8MEMFLAGS, ptr %7, align 8
  store ptr @_ZN15MallocSiteTable9new_entryERK15NativeCallStack8MEMFLAGS, ptr %2, align 16
  %8 = load atomic i8, ptr @_ZGVZN15MallocSiteTable10initializeEvE5stack acquire, align 8
  %9 = icmp eq i8 %8, 0
  br i1 %9, label %10, label %13, !prof !6

10:                                               ; preds = %5
  %11 = tail call i32 @__cxa_guard_acquire(ptr nonnull @_ZGVZN15MallocSiteTable10initializeEvE5stack) #14
  %.not = icmp eq i32 %11, 0
  br i1 %.not, label %13, label %12

12:                                               ; preds = %10
  call void @_ZN15NativeCallStackC1EPPhi(ptr noundef nonnull align 8 dereferenceable(32) @_ZZN15MallocSiteTable10initializeEvE5stack, ptr noundef nonnull %2, i32 noundef 3) #14
  call void @__cxa_guard_release(ptr nonnull @_ZGVZN15MallocSiteTable10initializeEvE5stack) #14
  br label %13

13:                                               ; preds = %12, %10, %5
  %14 = load atomic i8, ptr @_ZGVZN15MallocSiteTable10initializeEvE5entry acquire, align 8
  %15 = icmp eq i8 %14, 0
  br i1 %15, label %16, label %25, !prof !6

16:                                               ; preds = %13
  %17 = call i32 @__cxa_guard_acquire(ptr nonnull @_ZGVZN15MallocSiteTable10initializeEvE5entry) #14
  %.not4 = icmp eq i32 %17, 0
  br i1 %.not4, label %25, label %18

18:                                               ; preds = %16
  call void @llvm.lifetime.start.p0(i64 32, ptr nonnull %1)
  call void @llvm.memcpy.p0.p0.i64(ptr noundef nonnull align 8 dereferenceable(32) %1, ptr noundef nonnull align 8 dereferenceable(32) @_ZZN15MallocSiteTable10initializeEvE5stack, i64 32, i1 false)
  call void @llvm.memcpy.p0.p0.i64(ptr noundef nonnull align 8 dereferenceable(32) @_ZZN15MallocSiteTable10initializeEvE5entry, ptr noundef nonnull align 8 dereferenceable(32) @_ZZN15MallocSiteTable10initializeEvE5stack, i64 32, i1 false)
  store i8 12, ptr getelementptr inbounds (i8, ptr @_ZZN15MallocSiteTable10initializeEvE5entry, i64 32), align 8
  store volatile i64 0, ptr getelementptr inbounds (i8, ptr @_ZZN15MallocSiteTable10initializeEvE5entry, i64 40), align 8
  store volatile i64 0, ptr getelementptr inbounds (i8, ptr @_ZZN15MallocSiteTable10initializeEvE5entry, i64 48), align 8
  store volatile i64 0, ptr getelementptr inbounds (i8, ptr @_ZZN15MallocSiteTable10initializeEvE5entry, i64 56), align 8
  store volatile i64 0, ptr getelementptr inbounds (i8, ptr @_ZZN15MallocSiteTable10initializeEvE5entry, i64 64), align 8
  br label %19

19:                                               ; preds = %19, %18
  %indvars.iv.i.i = phi i64 [ 0, %18 ], [ %indvars.iv.next.i.i, %19 ]
  %.056.i.i = phi i64 [ 0, %18 ], [ %23, %19 ]
  %20 = getelementptr inbounds [4 x ptr], ptr %1, i64 0, i64 %indvars.iv.i.i
  %21 = load ptr, ptr %20, align 8
  %22 = ptrtoint ptr %21 to i64
  %23 = add i64 %.056.i.i, %22
  %indvars.iv.next.i.i = add nuw nsw i64 %indvars.iv.i.i, 1
  %exitcond.not.i.i = icmp eq i64 %indvars.iv.next.i.i, 4
  br i1 %exitcond.not.i.i, label %_ZN24MallocSiteHashtableEntryC2E15NativeCallStack8MEMFLAGS.exit, label %19, !llvm.loop !7

_ZN24MallocSiteHashtableEntryC2E15NativeCallStack8MEMFLAGS.exit: ; preds = %19
  %24 = trunc i64 %23 to i32
  store i32 %24, ptr getelementptr inbounds (i8, ptr @_ZZN15MallocSiteTable10initializeEvE5entry, i64 72), align 8
  store volatile ptr null, ptr getelementptr inbounds (i8, ptr @_ZZN15MallocSiteTable10initializeEvE5entry, i64 80), align 8
  call void @llvm.lifetime.end.p0(i64 32, ptr nonnull %1)
  call void @__cxa_guard_release(ptr nonnull @_ZGVZN15MallocSiteTable10initializeEvE5entry) #14
  br label %25

25:                                               ; preds = %_ZN24MallocSiteHashtableEntryC2E15NativeCallStack8MEMFLAGS.exit, %16, %13
  store ptr @_ZZN15MallocSiteTable10initializeEvE5stack, ptr @_ZN15MallocSiteTable28_hash_entry_allocation_stackE, align 8
  store ptr @_ZZN15MallocSiteTable10initializeEvE5entry, ptr @_ZN15MallocSiteTable27_hash_entry_allocation_siteE, align 8
  %26 = load i32, ptr getelementptr inbounds (i8, ptr @_ZZN15MallocSiteTable10initializeEvE5entry, i64 72), align 8
  %27 = urem i32 %26, 4099
  %28 = load ptr, ptr @_ZN15MallocSiteTable6_tableE, align 8
  %29 = zext nneg i32 %27 to i64
  %30 = getelementptr inbounds ptr, ptr %28, i64 %29
  store ptr @_ZZN15MallocSiteTable10initializeEvE5entry, ptr %30, align 8
  br label %31

31:                                               ; preds = %0, %25
  ret i1 %4
}